; Function Attrs: mustprogress nofree norecurse nosync nounwind willreturn memory(readwrite, argmem: write, inaccessiblemem: write) uwtable
define dso_local void @zend_replace_error_handling(i32 noundef %0, ptr noundef %1, ptr noundef writeonly captures(address_is_null) %2) local_unnamed_addr #28 {
  %.not = icmp eq ptr %2, null
  br i1 %.not, label %8, label %4

4:                                                ; preds = %3
  %5 = load i32, ptr getelementptr inbounds nuw (i8, ptr @executor_globals, i64 840), align 8, !tbaa !306
  store i32 %5, ptr %2, align 8, !tbaa !307
  %6 = load ptr, ptr getelementptr inbounds nuw (i8, ptr @executor_globals, i64 832), align 8, !tbaa !309
  %7 = getelementptr inbounds nuw i8, ptr %2, i64 8
  store ptr %6, ptr %7, align 8, !tbaa !310
  br label %8

8:                                                ; preds = %4, %3
  %9 = icmp eq i32 %0, 1
  %10 = icmp eq ptr %1, null
  %11 = or i1 %9, %10
  tail call void @llvm.assume(i1 %11)
  store i32 %0, ptr getelementptr inbounds nuw (i8, ptr @executor_globals, i64 840), align 8, !tbaa !306
  store ptr %1, ptr getelementptr inbounds nuw (i8, ptr @executor_globals, i64 832), align 8, !tbaa !309
  ret void
}